; Function Attrs: mustprogress uwtable
define hidden noundef zeroext i1 @_ZN4cvc58internal6theory3sep9TheorySep11areDisequalENS0_12NodeTemplateILb1EEES5_(ptr noundef nonnull readonly align 8 captures(none) dereferenceable(1824) %0, ptr noundef readonly captures(none) %1, ptr noundef readonly captures(none) %2) local_unnamed_addr #3 align 2 personality ptr @__gxx_personality_v0 {
  %4 = alloca %"class.cvc5::internal::NodeTemplate.595", align 8
  %5 = alloca %"class.cvc5::internal::NodeTemplate.595", align 8
  %6 = alloca %"class.cvc5::internal::NodeTemplate", align 8
  %7 = alloca %"class.cvc5::internal::NodeTemplate", align 8
  %8 = alloca %"class.cvc5::internal::NodeTemplate.595", align 8
  %9 = alloca %"class.cvc5::internal::NodeTemplate.595", align 8
  %10 = load ptr, ptr %1, align 8, !tbaa !19
  %11 = load ptr, ptr %2, align 8, !tbaa !19
  %12 = icmp eq ptr %10, %11
  br i1 %12, label %87, label %13

13:                                               ; preds = %3
  store ptr %10, ptr %6, align 8, !tbaa !19
  %14 = load i64, ptr %10, align 8
  %15 = lshr i64 %14, 40
  %16 = trunc nuw nsw i64 %15 to i32
  %17 = and i32 %16, 1048575
  %18 = icmp samesign ult i32 %17, 1048574
  br i1 %18, label %19, label %24, !prof !172

19:                                               ; preds = %13
  %20 = add i64 %14, 1099511627776
  %21 = and i64 %20, 1152920405095219200
  %22 = and i64 %14, -1152920405095219201
  %23 = or disjoint i64 %21, %22
  store i64 %23, ptr %10, align 8
  br label %_ZN4cvc58internal12NodeTemplateILb1EEC2ERKS2_.exit

24:                                               ; preds = %13
  %25 = icmp eq i32 %17, 1048574
  br i1 %25, label %26, label %_ZN4cvc58internal12NodeTemplateILb1EEC2ERKS2_.exit, !prof !171

26:                                               ; preds = %24
  %27 = or i64 %14, 1152920405095219200
  store i64 %27, ptr %10, align 8
  tail call void @_ZN4cvc58internal4expr9NodeValue20markRefCountMaxedOutEv(ptr noundef nonnull align 8 dereferenceable(24) %10)
  br label %_ZN4cvc58internal12NodeTemplateILb1EEC2ERKS2_.exit

_ZN4cvc58internal12NodeTemplateILb1EEC2ERKS2_.exit: ; preds = %19, %24, %26
  call void @llvm.lifetime.start.p0(i64 8, ptr nonnull %5)
  %28 = getelementptr inbounds nuw i8, ptr %0, i64 80
  %29 = load ptr, ptr %28, align 8, !tbaa !392
  store ptr %10, ptr %5, align 8, !tbaa !393
  %30 = invoke noundef zeroext i1 @_ZNK4cvc58internal6theory2eq14EqualityEngine7hasTermENS0_12NodeTemplateILb0EEE(ptr noundef nonnull align 8 dereferenceable(1784) %29, ptr noundef nonnull %5)
          to label %31 unwind label %81

31:                                               ; preds = %_ZN4cvc58internal12NodeTemplateILb1EEC2ERKS2_.exit
  call void @llvm.lifetime.end.p0(i64 8, ptr nonnull %5)
  br i1 %30, label %32, label %_ZN4cvc58internal12NodeTemplateILb1EED2Ev.exit

32:                                               ; preds = %31
  %33 = load ptr, ptr %2, align 8, !tbaa !19
  store ptr %33, ptr %7, align 8, !tbaa !19
  %34 = load i64, ptr %33, align 8
  %35 = lshr i64 %34, 40
  %36 = trunc nuw nsw i64 %35 to i32
  %37 = and i32 %36, 1048575
  %38 = icmp samesign ult i32 %37, 1048574
  br i1 %38, label %39, label %44, !prof !172

39:                                               ; preds = %32
  %40 = add i64 %34, 1099511627776
  %41 = and i64 %40, 1152920405095219200
  %42 = and i64 %34, -1152920405095219201
  %43 = or disjoint i64 %41, %42
  store i64 %43, ptr %33, align 8
  br label %_ZN4cvc58internal12NodeTemplateILb1EEC2ERKS2_.exit12

44:                                               ; preds = %32
  %45 = icmp eq i32 %37, 1048574
  br i1 %45, label %46, label %_ZN4cvc58internal12NodeTemplateILb1EEC2ERKS2_.exit12, !prof !171

46:                                               ; preds = %44
  %47 = or i64 %34, 1152920405095219200
  store i64 %47, ptr %33, align 8
  invoke void @_ZN4cvc58internal4expr9NodeValue20markRefCountMaxedOutEv(ptr noundef nonnull align 8 dereferenceable(24) %33)
          to label %_ZN4cvc58internal12NodeTemplateILb1EEC2ERKS2_.exit12 unwind label %81

_ZN4cvc58internal12NodeTemplateILb1EEC2ERKS2_.exit12: ; preds = %44, %39, %46
  call void @llvm.lifetime.start.p0(i64 8, ptr nonnull %4)
  %48 = load ptr, ptr %28, align 8, !tbaa !392
  store ptr %33, ptr %4, align 8, !tbaa !393
  %49 = invoke noundef zeroext i1 @_ZNK4cvc58internal6theory2eq14EqualityEngine7hasTermENS0_12NodeTemplateILb0EEE(ptr noundef nonnull align 8 dereferenceable(1784) %48, ptr noundef nonnull %4)
          to label %50 unwind label %83

50:                                               ; preds = %_ZN4cvc58internal12NodeTemplateILb1EEC2ERKS2_.exit12
  call void @llvm.lifetime.end.p0(i64 8, ptr nonnull %4)
  %51 = load i64, ptr %33, align 8
  %52 = and i64 %51, 1152920405095219200
  %.not.i.i = icmp eq i64 %52, 1152920405095219200
  br i1 %.not.i.i, label %_ZN4cvc58internal12NodeTemplateILb1EED2Ev.exit, label %53, !prof !171

53:                                               ; preds = %50
  %54 = add i64 %51, 1152920405095219200
  %55 = and i64 %54, 1152920405095219200
  %56 = and i64 %51, -1152920405095219201
  %57 = or disjoint i64 %55, %56
  store i64 %57, ptr %33, align 8
  %58 = icmp eq i64 %55, 0
  br i1 %58, label %59, label %_ZN4cvc58internal12NodeTemplateILb1EED2Ev.exit, !prof !171

59:                                               ; preds = %53
  invoke void @_ZN4cvc58internal4expr9NodeValue15markForDeletionEv(ptr noundef nonnull align 8 dereferenceable(24) %33)
          to label %_ZN4cvc58internal12NodeTemplateILb1EED2Ev.exit unwind label %60

60:                                               ; preds = %59
  %61 = landingpad { ptr, i32 }
          catch ptr null
  %62 = extractvalue { ptr, i32 } %61, 0
  call void @__clang_call_terminate(ptr %62) #28
  unreachable

_ZN4cvc58internal12NodeTemplateILb1EED2Ev.exit:   ; preds = %59, %53, %50, %31
  %63 = phi i1 [ false, %31 ], [ %49, %50 ], [ %49, %53 ], [ %49, %59 ]
  %64 = load i64, ptr %10, align 8
  %65 = and i64 %64, 1152920405095219200
  %.not.i.i15 = icmp eq i64 %65, 1152920405095219200
  br i1 %.not.i.i15, label %_ZN4cvc58internal12NodeTemplateILb1EED2Ev.exit16, label %66, !prof !171

66:                                               ; preds = %_ZN4cvc58internal12NodeTemplateILb1EED2Ev.exit
  %67 = add i64 %64, 1152920405095219200
  %68 = and i64 %67, 1152920405095219200
  %69 = and i64 %64, -1152920405095219201
  %70 = or disjoint i64 %68, %69
  store i64 %70, ptr %10, align 8
  %71 = icmp eq i64 %68, 0
  br i1 %71, label %72, label %_ZN4cvc58internal12NodeTemplateILb1EED2Ev.exit16, !prof !171

72:                                               ; preds = %66
  invoke void @_ZN4cvc58internal4expr9NodeValue15markForDeletionEv(ptr noundef nonnull align 8 dereferenceable(24) %10)
          to label %_ZN4cvc58internal12NodeTemplateILb1EED2Ev.exit16 unwind label %73

73:                                               ; preds = %72
  %74 = landingpad { ptr, i32 }
          catch ptr null
  %75 = extractvalue { ptr, i32 } %74, 0
  call void @__clang_call_terminate(ptr %75) #28
  unreachable

_ZN4cvc58internal12NodeTemplateILb1EED2Ev.exit16: ; preds = %_ZN4cvc58internal12NodeTemplateILb1EED2Ev.exit, %66, %72
  br i1 %63, label %76, label %86

76:                                               ; preds = %_ZN4cvc58internal12NodeTemplateILb1EED2Ev.exit16
  %77 = load ptr, ptr %28, align 8, !tbaa !392
  %78 = load ptr, ptr %1, align 8, !tbaa !19
  store ptr %78, ptr %8, align 8, !tbaa !393
  %79 = load ptr, ptr %2, align 8, !tbaa !19
  store ptr %79, ptr %9, align 8, !tbaa !393
  %80 = call noundef zeroext i1 @_ZNK4cvc58internal6theory2eq14EqualityEngine11areDisequalENS0_12NodeTemplateILb0EEES5_b(ptr noundef nonnull align 8 dereferenceable(1784) %77, ptr noundef nonnull %8, ptr noundef nonnull %9, i1 noundef zeroext false)
  br i1 %80, label %87, label %86

81:                                               ; preds = %46, %_ZN4cvc58internal12NodeTemplateILb1EEC2ERKS2_.exit
  %82 = landingpad { ptr, i32 }
          cleanup
  br label %85

83:                                               ; preds = %_ZN4cvc58internal12NodeTemplateILb1EEC2ERKS2_.exit12
  %84 = landingpad { ptr, i32 }
          cleanup
  call void @_ZN4cvc58internal12NodeTemplateILb1EED2Ev(ptr noundef nonnull align 8 dereferenceable(8) %7) #26
  br label %85

85:                                               ; preds = %83, %81
  %.pn = phi { ptr, i32 } [ %84, %83 ], [ %82, %81 ]
  call void @_ZN4cvc58internal12NodeTemplateILb1EED2Ev(ptr noundef nonnull align 8 dereferenceable(8) %6) #26
  resume { ptr, i32 } %.pn

86:                                               ; preds = %_ZN4cvc58internal12NodeTemplateILb1EED2Ev.exit16, %76
  br label %87

87:                                               ; preds = %76, %3, %86
  %.08 = phi i1 [ false, %86 ], [ false, %3 ], [ true, %76 ]
  ret i1 %.08
}